target datalayout = "e-m:e-p270:32:32-p271:32:32-p272:64:64-i64:64-i128:128-f80:128-n8:16:32:64-S128"
target triple = "x86_64-pc-linux-gnu"

%"struct.duckdb::utf8proc_property_struct" = type { i16, i16, i16, i16, i16, i16, i16, i16, i16, i16, i16, [2 x i8] }

; Function Attrs: mustprogress nounwind uwtable
define internal noundef ptr @_ZN6duckdbL19unsafe_get_propertyEi(i32 noundef %0) #0 {
  %2 = alloca i32, align 4
  store i32 %0, ptr %2, align 4, !tbaa !12
  %3 = load i32, ptr %2, align 4, !tbaa !12
  %4 = ashr i32 %3, 8
  %5 = sext i32 %4 to i64
  %6 = getelementptr inbounds [4352 x i16], ptr @_ZN6duckdbL20utf8proc_stage1tableE, i64 0, i64 %5
  %7 = load i16, ptr %6, align 2, !tbaa !15
  %8 = zext i16 %7 to i32
  %9 = load i32, ptr %2, align 4, !tbaa !12
  %10 = and i32 %9, 255
  %11 = add nsw i32 %8, %10
  %12 = sext i32 %11 to i64
  %13 = getelementptr inbounds [44800 x i16], ptr @_ZN6duckdbL20utf8proc_stage2tableE, i64 0, i64 %12
  %14 = load i16, ptr %13, align 2, !tbaa !15
  %15 = zext i16 %14 to i32
  %16 = sext i32 %15 to i64
  %17 = getelementptr inbounds %"struct.duckdb::utf8proc_property_struct", ptr @_ZN6duckdbL19utf8proc_propertiesE, i64 %16
  ret ptr %17
}

; Function Attrs: mustprogress uwtable
define noundef ptr @_ZN6duckdb21utf8proc_get_propertyEi(i32 noundef %0) #2 {
  %2 = alloca i32, align 4
  store i32 %0, ptr %2, align 4, !tbaa !12
  %3 = load i32, ptr %2, align 4, !tbaa !12
  %4 = icmp slt i32 %3, 0
  br i1 %4, label %8, label %5

5:                                                ; preds = %1
  %6 = load i32, ptr %2, align 4, !tbaa !12
  %7 = icmp sge i32 %6, 1114112
  br i1 %7, label %8, label %9

8:                                                ; preds = %5, %1
  br label %12

9:                                                ; preds = %5
  %10 = load i32, ptr %2, align 4, !tbaa !12
  %11 = call noundef ptr @_ZN6duckdbL19unsafe_get_propertyEi(i32 noundef %10)
  br label %12

12:                                               ; preds = %9, %8
  %13 = phi ptr [ @_ZN6duckdbL19utf8proc_propertiesE, %8 ], [ %11, %9 ]
  ret ptr %13
}

; Function Attrs: mustprogress uwtable
define noundef i32 @_ZN6duckdb16utf8proc_islowerEi(i32 noundef %0) #2 {
  %2 = alloca i32, align 4
  %3 = alloca ptr, align 8
  store i32 %0, ptr %2, align 4, !tbaa !12
  call void @llvm.lifetime.start.p0(i64 8, ptr %3) #6
  %4 = load i32, ptr %2, align 4, !tbaa !12
  %5 = call noundef ptr @_ZN6duckdb21utf8proc_get_propertyEi(i32 noundef %4)
  store ptr %5, ptr %3, align 8, !tbaa !17
  %6 = load ptr, ptr %3, align 8, !tbaa !17
  %7 = getelementptr inbounds nuw %"struct.duckdb::utf8proc_property_struct", ptr %6, i32 0, i32 7
  %8 = load i16, ptr %7, align 2, !tbaa !23
  %9 = zext i16 %8 to i32
  %10 = load ptr, ptr %3, align 8, !tbaa !17
  %11 = getelementptr inbounds nuw %"struct.duckdb::utf8proc_property_struct", ptr %10, i32 0, i32 6
  %12 = load i16, ptr %11, align 4, !tbaa !27
  %13 = zext i16 %12 to i32
  %14 = icmp ne i32 %9, %13
  br i1 %14, label %15, label %21

15:                                               ; preds = %1
  %16 = load ptr, ptr %3, align 8, !tbaa !17
  %17 = getelementptr inbounds nuw %"struct.duckdb::utf8proc_property_struct", ptr %16, i32 0, i32 7
  %18 = load i16, ptr %17, align 2, !tbaa !23
  %19 = zext i16 %18 to i32
  %20 = icmp eq i32 %19, 65535
  br label %21

21:                                               ; preds = %15, %1
  %22 = phi i1 [ false, %1 ], [ %20, %15 ]
  %23 = zext i1 %22 to i32
  call void @llvm.lifetime.end.p0(i64 8, ptr %3) #6
  ret i32 %23
}